; ModuleID = '20/1270.c'
source_filename = "20/1270.c"
target datalayout = "e-m:e-p270:32:32-p271:32:32-p272:64:64-i64:64-f80:128-n8:16:32:64-S128"
target triple = "x86_64-pc-linux-gnu"

@.str = private unnamed_addr constant [5 x i8] c"%s%s\00", align 1
@.str.1 = private unnamed_addr constant [3 x i8] c"%c\00", align 1
@.str.2 = private unnamed_addr constant [3 x i8] c"%s\00", align 1
@.str.3 = private unnamed_addr constant [2 x i8] c"\0A\00", align 1

; Function Attrs: noinline nounwind uwtable
define dso_local i32 @main() #0 {
  %1 = alloca i32, align 4
  %2 = alloca [11 x i8], align 1
  %3 = alloca [4 x i8], align 1
  %4 = alloca i8*, align 8
  %5 = alloca i32, align 4
  %6 = alloca i32, align 4
  %7 = alloca i32, align 4
  store i32 0, i32* %1, align 4
  %8 = bitcast [11 x i8]* %2 to i8*
  call void @llvm.memset.p0i8.i64(i8* align 1 %8, i8 0, i64 11, i1 false)
  %9 = bitcast [4 x i8]* %3 to i8*
  call void @llvm.memset.p0i8.i64(i8* align 1 %9, i8 0, i64 4, i1 false)
  br label %10

10:                                               ; preds = %85, %0
  %11 = getelementptr inbounds [11 x i8], [11 x i8]* %2, i64 0, i64 0
  %12 = getelementptr inbounds [4 x i8], [4 x i8]* %3, i64 0, i64 0
  %13 = call i32 (i8*, ...) @__isoc99_scanf(i8* getelementptr inbounds ([5 x i8], [5 x i8]* @.str, i64 0, i64 0), i8* %11, i8* %12)
  %14 = icmp ne i32 %13, -1
  br i1 %14, label %15, label %87

15:                                               ; preds = %10
  %16 = getelementptr inbounds [11 x i8], [11 x i8]* %2, i64 0, i64 0
  %17 = call i64 @strlen(i8* %16) #4
  %18 = trunc i64 %17 to i32
  store i32 %18, i32* %6, align 4
  %19 = getelementptr inbounds [11 x i8], [11 x i8]* %2, i64 0, i64 0
  store i8* %19, i8** %4, align 8
  store i32 0, i32* %5, align 4
  br label %20

20:                                               ; preds = %39, %15
  %21 = load i32, i32* %5, align 4
  %22 = load i32, i32* %6, align 4
  %23 = icmp slt i32 %21, %22
  br i1 %23, label %24, label %42

24:                                               ; preds = %20
  %25 = load i8*, i8** %4, align 8
  %26 = load i8, i8* %25, align 1
  %27 = sext i8 %26 to i32
  %28 = load i32, i32* %5, align 4
  %29 = sext i32 %28 to i64
  %30 = getelementptr inbounds [11 x i8], [11 x i8]* %2, i64 0, i64 %29
  %31 = load i8, i8* %30, align 1
  %32 = sext i8 %31 to i32
  %33 = icmp slt i32 %27, %32
  br i1 %33, label %34, label %38

34:                                               ; preds = %24
  %35 = load i32, i32* %5, align 4
  %36 = sext i32 %35 to i64
  %37 = getelementptr inbounds [11 x i8], [11 x i8]* %2, i64 0, i64 %36
  store i8* %37, i8** %4, align 8
  br label %38

38:                                               ; preds = %34, %24
  br label %39

39:                                               ; preds = %38
  %40 = load i32, i32* %5, align 4
  %41 = add nsw i32 %40, 1
  store i32 %41, i32* %5, align 4
  br label %20

42:                                               ; preds = %20
  %43 = load i8*, i8** %4, align 8
  %44 = getelementptr inbounds [11 x i8], [11 x i8]* %2, i64 0, i64 0
  %45 = ptrtoint i8* %43 to i64
  %46 = ptrtoint i8* %44 to i64
  %47 = sub i64 %45, %46
  %48 = add nsw i64 %47, 1
  %49 = trunc i64 %48 to i32
  store i32 %49, i32* %7, align 4
  store i32 0, i32* %5, align 4
  br label %50

50:                                               ; preds = %61, %42
  %51 = load i32, i32* %5, align 4
  %52 = load i32, i32* %7, align 4
  %53 = icmp slt i32 %51, %52
  br i1 %53, label %54, label %64

54:                                               ; preds = %50
  %55 = load i32, i32* %5, align 4
  %56 = sext i32 %55 to i64
  %57 = getelementptr inbounds [11 x i8], [11 x i8]* %2, i64 0, i64 %56
  %58 = load i8, i8* %57, align 1
  %59 = sext i8 %58 to i32
  %60 = call i32 (i8*, ...) @printf(i8* getelementptr inbounds ([3 x i8], [3 x i8]* @.str.1, i64 0, i64 0), i32 %59)
  br label %61

61:                                               ; preds = %54
  %62 = load i32, i32* %5, align 4
  %63 = add nsw i32 %62, 1
  store i32 %63, i32* %5, align 4
  br label %50

64:                                               ; preds = %50
  %65 = getelementptr inbounds [4 x i8], [4 x i8]* %3, i64 0, i64 0
  %66 = call i32 (i8*, ...) @printf(i8* getelementptr inbounds ([3 x i8], [3 x i8]* @.str.2, i64 0, i64 0), i8* %65)
  %67 = load i32, i32* %7, align 4
  store i32 %67, i32* %5, align 4
  br label %68

68:                                               ; preds = %82, %64
  %69 = load i32, i32* %5, align 4
  %70 = sext i32 %69 to i64
  %71 = getelementptr inbounds [11 x i8], [11 x i8]* %2, i64 0, i64 %70
  %72 = load i8, i8* %71, align 1
  %73 = sext i8 %72 to i32
  %74 = icmp ne i32 %73, 0
  br i1 %74, label %75, label %85

75:                                               ; preds = %68
  %76 = load i32, i32* %5, align 4
  %77 = sext i32 %76 to i64
  %78 = getelementptr inbounds [11 x i8], [11 x i8]* %2, i64 0, i64 %77
  %79 = load i8, i8* %78, align 1
  %80 = sext i8 %79 to i32
  %81 = call i32 (i8*, ...) @printf(i8* getelementptr inbounds ([3 x i8], [3 x i8]* @.str.1, i64 0, i64 0), i32 %80)
  br label %82

82:                                               ; preds = %75
  %83 = load i32, i32* %5, align 4
  %84 = add nsw i32 %83, 1
  store i32 %84, i32* %5, align 4
  br label %68

85:                                               ; preds = %68
  %86 = call i32 (i8*, ...) @printf(i8* getelementptr inbounds ([2 x i8], [2 x i8]* @.str.3, i64 0, i64 0))
  br label %10

87:                                               ; preds = %10
  %88 = load i32, i32* %1, align 4
  ret i32 %88
}

; Function Attrs: argmemonly nounwind willreturn
declare void @llvm.memset.p0i8.i64(i8* nocapture writeonly, i8, i64, i1 immarg) #1

declare dso_local i32 @__isoc99_scanf(i8*, ...) #2

; Function Attrs: nounwind readonly
declare dso_local i64 @strlen(i8*) #3

declare dso_local i32 @printf(i8*, ...) #2


!llvm.module.flags = !{!0}
!llvm.ident = !{!1}

!0 = !{i32 1, !"wchar_size", i32 4}
!1 = !{!"clang version 10.0.0-4ubuntu1 "}
